(lp0
S'5_o_Clock_Shadow'
p1
aS'Arched_Eyebrows'
p2
aS'Attractive'
p3
aS'Bags_Under_Eyes'
p4
aS'Bald'
p5
aS'Bangs'
p6
aS'Big_Lips'
p7
aS'Big_Nose'
p8
aS'Black_Hair'
p9
aS'Blond_Hair'
p10
aS'Blurry'
p11
aS'Brown_Hair'
p12
aS'Bushy_Eyebrows'
p13
aS'Chubby'
p14
aS'Double_Chin'
p15
aS'Eyeglasses'
p16
aS'Goatee'
p17
aS'Gray_Hair'
p18
aS'Heavy_Makeup'
p19
aS'High_Cheekbones'
p20
aS'Male'
p21
aS'Mouth_Slightly_Open'
p22
aS'Mustache'
p23
aS'Narrow_Eyes'
p24
aS'No_Beard'
p25
aS'Oval_Face'
p26
aS'Pale_Skin'
p27
aS'Pointy_Nose'
p28
aS'Receding_Hairline'
p29
aS'Rosy_Cheeks'
p30
aS'Sideburns'
p31
aS'Smiling'
p32
aS'Straight_Hair'
p33
aS'Wavy_Hair'
p34
aS'Wearing_Earrings'
p35
aS'Wearing_Hat'
p36
aS'Wearing_Lipstick'
p37
aS'Wearing_Necklace'
p38
aS'Wearing_Necktie'
p39
aS'Young'
p40
aS''
p41
a.